; Function Attrs: nofree norecurse nosync nounwind null_pointer_is_valid sspstrong memory(readwrite, inaccessiblemem: none) uwtable
define hidden void @Plink_copy(ptr noundef captures(none) %0, ptr noundef %1) local_unnamed_addr #9 {
  %.not7 = icmp eq ptr %1, null
  br i1 %.not7, label %._crit_edge, label %.lr.ph.preheader

.lr.ph.preheader:                                 ; preds = %2
  %.pre = load ptr, ptr %0, align 8
  br label %.lr.ph

.lr.ph:                                           ; preds = %.lr.ph.preheader, %.lr.ph
  %3 = phi ptr [ %.08, %.lr.ph ], [ %.pre, %.lr.ph.preheader ]
  %.08 = phi ptr [ %5, %.lr.ph ], [ %1, %.lr.ph.preheader ]
  %4 = getelementptr inbounds nuw i8, ptr %.08, i64 8
  %5 = load ptr, ptr %4, align 8
  store ptr %3, ptr %4, align 8
  store ptr %.08, ptr %0, align 8
  %.not = icmp eq ptr %5, null
  br i1 %.not, label %._crit_edge, label %.lr.ph, !llvm.loop !39

._crit_edge:                                      ; preds = %.lr.ph, %2
  ret void
}